target datalayout = "e-m:e-p270:32:32-p271:32:32-p272:64:64-i64:64-i128:128-f80:128-n8:16:32:64-S128"
target triple = "x86_64-pc-linux-gnu"

%struct.tlsextalpnctx_st = type { ptr, i64 }

@bio_s_out = internal global ptr null, align 8
@s_quiet = internal global i32 0, align 4
@.str.475 = private unnamed_addr constant [42 x i8] c"ALPN protocols advertised by the client: \00", align 1
@.str.476 = private unnamed_addr constant [3 x i8] c", \00", align 1
@.str.477 = private unnamed_addr constant [2 x i8] c"\0A\00", align 1
@.str.478 = private unnamed_addr constant [26 x i8] c"ALPN protocols selected: \00", align 1

; Function Attrs: nounwind uwtable
define internal i32 @alpn_cb(ptr noundef %0, ptr noundef %1, ptr noundef %2, ptr noundef %3, i32 noundef %4, ptr noundef %5) #0 {
  %7 = alloca i32, align 4
  %8 = alloca ptr, align 8
  %9 = alloca ptr, align 8
  %10 = alloca ptr, align 8
  %11 = alloca ptr, align 8
  %12 = alloca i32, align 4
  %13 = alloca ptr, align 8
  %14 = alloca ptr, align 8
  %15 = alloca i32, align 4
  %16 = alloca i32, align 4
  store ptr %0, ptr %8, align 8, !tbaa !73
  store ptr %1, ptr %9, align 8, !tbaa !8
  store ptr %2, ptr %10, align 8, !tbaa !31
  store ptr %3, ptr %11, align 8, !tbaa !31
  store i32 %4, ptr %12, align 4, !tbaa !4
  store ptr %5, ptr %13, align 8, !tbaa !69
  call void @llvm.lifetime.start.p0(i64 8, ptr %14) #10
  %17 = load ptr, ptr %13, align 8, !tbaa !69
  store ptr %17, ptr %14, align 8, !tbaa !81
  %18 = load i32, ptr @s_quiet, align 4, !tbaa !4
  %19 = icmp ne i32 %18, 0
  br i1 %19, label %59, label %20

20:                                               ; preds = %6
  call void @llvm.lifetime.start.p0(i64 4, ptr %15) #10
  %21 = load ptr, ptr @bio_s_out, align 8, !tbaa !35
  %22 = call i32 (ptr, ptr, ...) @BIO_printf(ptr noundef %21, ptr noundef @.str.475)
  store i32 0, ptr %15, align 4, !tbaa !4
  br label %23

23:                                               ; preds = %33, %20
  %24 = load i32, ptr %15, align 4, !tbaa !4
  %25 = load i32, ptr %12, align 4, !tbaa !4
  %26 = icmp ult i32 %24, %25
  br i1 %26, label %27, label %56

27:                                               ; preds = %23
  %28 = load i32, ptr %15, align 4, !tbaa !4
  %29 = icmp ne i32 %28, 0
  br i1 %29, label %30, label %33

30:                                               ; preds = %27
  %31 = load ptr, ptr @bio_s_out, align 8, !tbaa !35
  %32 = call i32 @BIO_write(ptr noundef %31, ptr noundef @.str.476, i32 noundef 2)
  br label %33

33:                                               ; preds = %30, %27
  %34 = load ptr, ptr @bio_s_out, align 8, !tbaa !35
  %35 = load ptr, ptr %11, align 8, !tbaa !31
  %36 = load i32, ptr %15, align 4, !tbaa !4
  %37 = add i32 %36, 1
  %38 = zext i32 %37 to i64
  %39 = getelementptr inbounds nuw i8, ptr %35, i64 %38
  %40 = load ptr, ptr %11, align 8, !tbaa !31
  %41 = load i32, ptr %15, align 4, !tbaa !4
  %42 = zext i32 %41 to i64
  %43 = getelementptr inbounds nuw i8, ptr %40, i64 %42
  %44 = load i8, ptr %43, align 1, !tbaa !47
  %45 = zext i8 %44 to i32
  %46 = call i32 @BIO_write(ptr noundef %34, ptr noundef %39, i32 noundef %45)
  %47 = load ptr, ptr %11, align 8, !tbaa !31
  %48 = load i32, ptr %15, align 4, !tbaa !4
  %49 = zext i32 %48 to i64
  %50 = getelementptr inbounds nuw i8, ptr %47, i64 %49
  %51 = load i8, ptr %50, align 1, !tbaa !47
  %52 = zext i8 %51 to i32
  %53 = add nsw i32 %52, 1
  %54 = load i32, ptr %15, align 4, !tbaa !4
  %55 = add i32 %54, %53
  store i32 %55, ptr %15, align 4, !tbaa !4
  br label %23, !llvm.loop !83

56:                                               ; preds = %23
  %57 = load ptr, ptr @bio_s_out, align 8, !tbaa !35
  %58 = call i32 @BIO_write(ptr noundef %57, ptr noundef @.str.477, i32 noundef 1)
  call void @llvm.lifetime.end.p0(i64 4, ptr %15) #10
  br label %59

59:                                               ; preds = %56, %6
  %60 = load ptr, ptr %9, align 8, !tbaa !8
  %61 = load ptr, ptr %10, align 8, !tbaa !31
  %62 = load ptr, ptr %14, align 8, !tbaa !81
  %63 = getelementptr inbounds nuw %struct.tlsextalpnctx_st, ptr %62, i32 0, i32 0
  %64 = load ptr, ptr %63, align 8, !tbaa !62
  %65 = load ptr, ptr %14, align 8, !tbaa !81
  %66 = getelementptr inbounds nuw %struct.tlsextalpnctx_st, ptr %65, i32 0, i32 1
  %67 = load i64, ptr %66, align 8, !tbaa !84
  %68 = trunc i64 %67 to i32
  %69 = load ptr, ptr %11, align 8, !tbaa !31
  %70 = load i32, ptr %12, align 4, !tbaa !4
  %71 = call i32 @SSL_select_next_proto(ptr noundef %60, ptr noundef %61, ptr noundef %64, i32 noundef %68, ptr noundef %69, i32 noundef %70)
  %72 = icmp ne i32 %71, 1
  br i1 %72, label %73, label %74

73:                                               ; preds = %59
  store i32 2, ptr %7, align 4
  store i32 1, ptr %16, align 4
  br label %90

74:                                               ; preds = %59
  %75 = load i32, ptr @s_quiet, align 4, !tbaa !4
  %76 = icmp ne i32 %75, 0
  br i1 %76, label %89, label %77

77:                                               ; preds = %74
  %78 = load ptr, ptr @bio_s_out, align 8, !tbaa !35
  %79 = call i32 (ptr, ptr, ...) @BIO_printf(ptr noundef %78, ptr noundef @.str.478)
  %80 = load ptr, ptr @bio_s_out, align 8, !tbaa !35
  %81 = load ptr, ptr %9, align 8, !tbaa !8
  %82 = load ptr, ptr %81, align 8, !tbaa !31
  %83 = load ptr, ptr %10, align 8, !tbaa !31
  %84 = load i8, ptr %83, align 1, !tbaa !47
  %85 = zext i8 %84 to i32
  %86 = call i32 @BIO_write(ptr noundef %80, ptr noundef %82, i32 noundef %85)
  %87 = load ptr, ptr @bio_s_out, align 8, !tbaa !35
  %88 = call i32 @BIO_write(ptr noundef %87, ptr noundef @.str.477, i32 noundef 1)
  br label %89

89:                                               ; preds = %77, %74
  store i32 0, ptr %7, align 4
  store i32 1, ptr %16, align 4
  br label %90

90:                                               ; preds = %89, %73
  call void @llvm.lifetime.end.p0(i64 8, ptr %14) #10
  %91 = load i32, ptr %7, align 4
  ret i32 %91
}