; Function Attrs: nounwind uwtable
define internal range(i32 0, 3) i32 @alpn_cb(ptr readnone captures(none) %0, ptr noundef %1, ptr noundef %2, ptr noundef %3, i32 noundef %4, ptr noundef readonly captures(none) %5) #0 {
  %.b20 = load i1, ptr @s_quiet, align 4
  br i1 %.b20, label %29, label %7

7:                                                ; preds = %6
  %8 = load ptr, ptr @bio_s_out, align 8, !tbaa !19
  %9 = tail call i32 (ptr, ptr, ...) @BIO_printf(ptr noundef %8, ptr noundef nonnull @.str.475) #14
  %.not23 = icmp eq i32 %4, 0
  br i1 %.not23, label %._crit_edge, label %.lr.ph

.lr.ph:                                           ; preds = %7, %13
  %.022 = phi i32 [ %25, %13 ], [ 0, %7 ]
  %.not = icmp eq i32 %.022, 0
  br i1 %.not, label %13, label %10

10:                                               ; preds = %.lr.ph
  %11 = load ptr, ptr @bio_s_out, align 8, !tbaa !19
  %12 = tail call i32 @BIO_write(ptr noundef %11, ptr noundef nonnull @.str.476, i32 noundef 2) #14
  br label %13

13:                                               ; preds = %10, %.lr.ph
  %14 = load ptr, ptr @bio_s_out, align 8, !tbaa !19
  %15 = add nuw i32 %.022, 1
  %16 = zext i32 %15 to i64
  %17 = getelementptr inbounds nuw i8, ptr %3, i64 %16
  %18 = zext i32 %.022 to i64
  %19 = getelementptr inbounds nuw i8, ptr %3, i64 %18
  %20 = load i8, ptr %19, align 1, !tbaa !31
  %21 = zext i8 %20 to i32
  %22 = tail call i32 @BIO_write(ptr noundef %14, ptr noundef nonnull %17, i32 noundef %21) #14
  %23 = load i8, ptr %19, align 1, !tbaa !31
  %24 = zext i8 %23 to i32
  %25 = add i32 %15, %24
  %26 = icmp ult i32 %25, %4
  br i1 %26, label %.lr.ph, label %._crit_edge, !llvm.loop !63

._crit_edge:                                      ; preds = %13, %7
  %27 = load ptr, ptr @bio_s_out, align 8, !tbaa !19
  %28 = tail call i32 @BIO_write(ptr noundef %27, ptr noundef nonnull @.str.477, i32 noundef 1) #14
  br label %29

29:                                               ; preds = %._crit_edge, %6
  %30 = load ptr, ptr %5, align 8, !tbaa !46
  %31 = getelementptr inbounds nuw i8, ptr %5, i64 8
  %32 = load i64, ptr %31, align 8, !tbaa !64
  %33 = trunc i64 %32 to i32
  %34 = tail call i32 @SSL_select_next_proto(ptr noundef %1, ptr noundef %2, ptr noundef %30, i32 noundef %33, ptr noundef %3, i32 noundef %4) #14
  %.not21 = icmp eq i32 %34, 1
  br i1 %.not21, label %35, label %46

35:                                               ; preds = %29
  %.b = load i1, ptr @s_quiet, align 4
  br i1 %.b, label %46, label %36

36:                                               ; preds = %35
  %37 = load ptr, ptr @bio_s_out, align 8, !tbaa !19
  %38 = tail call i32 (ptr, ptr, ...) @BIO_printf(ptr noundef %37, ptr noundef nonnull @.str.478) #14
  %39 = load ptr, ptr @bio_s_out, align 8, !tbaa !19
  %40 = load ptr, ptr %1, align 8, !tbaa !11
  %41 = load i8, ptr %2, align 1, !tbaa !31
  %42 = zext i8 %41 to i32
  %43 = tail call i32 @BIO_write(ptr noundef %39, ptr noundef %40, i32 noundef %42) #14
  %44 = load ptr, ptr @bio_s_out, align 8, !tbaa !19
  %45 = tail call i32 @BIO_write(ptr noundef %44, ptr noundef nonnull @.str.477, i32 noundef 1) #14
  br label %46

46:                                               ; preds = %35, %36, %29
  %.019 = phi i32 [ 2, %29 ], [ 0, %36 ], [ 0, %35 ]
  ret i32 %.019
}